; Function Attrs: mustprogress uwtable
define hidden noundef zeroext i1 @_ZNK8facebook6hermes7tracing10SynthTrace22GetOrSetPropertyRecordeqERKNS2_6RecordE(ptr noundef nonnull align 8 dereferenceable(56) %this, ptr noundef nonnull align 8 dereferenceable(16) %that) unnamed_addr #1 align 2 {
entry:
  %vtable.i = load ptr, ptr %this, align 8
  %vfn.i = getelementptr inbounds i8, ptr %vtable.i, i64 16
  %0 = load ptr, ptr %vfn.i, align 8
  %call.i = tail call noundef i32 %0(ptr noundef nonnull align 8 dereferenceable(16) %this)
  %vtable2.i = load ptr, ptr %that, align 8
  %vfn3.i = getelementptr inbounds i8, ptr %vtable2.i, i64 16
  %1 = load ptr, ptr %vfn3.i, align 8
  %call4.i = tail call noundef i32 %1(ptr noundef nonnull align 8 dereferenceable(16) %that)
  %cmp.i = icmp eq i32 %call.i, %call4.i
  br i1 %cmp.i, label %if.end, label %return

if.end:                                           ; preds = %entry
  %2 = tail call ptr @__dynamic_cast(ptr nonnull %that, ptr nonnull @_ZTIN8facebook6hermes7tracing10SynthTrace6RecordE, ptr nonnull @_ZTIN8facebook6hermes7tracing10SynthTrace22GetOrSetPropertyRecordE, i64 0) #23
  %3 = icmp eq ptr %2, null
  br i1 %3, label %dynamic_cast.bad_cast, label %dynamic_cast.end

dynamic_cast.bad_cast:                            ; preds = %if.end
  tail call void @__cxa_bad_cast() #26
  unreachable

dynamic_cast.end:                                 ; preds = %if.end
  %objID_ = getelementptr inbounds i8, ptr %this, i64 16
  %4 = load i64, ptr %objID_, align 8
  %objID_2 = getelementptr inbounds i8, ptr %2, i64 16
  %5 = load i64, ptr %objID_2, align 8
  %cmp = icmp eq i64 %4, %5
  br i1 %cmp, label %land.lhs.true, label %return

land.lhs.true:                                    ; preds = %dynamic_cast.end
  %propID_ = getelementptr inbounds i8, ptr %this, i64 24
  %propID_3 = getelementptr inbounds i8, ptr %2, i64 24
  %6 = load i32, ptr %propID_, align 8
  %7 = load i32, ptr %propID_3, align 8
  %cmp.not.i = icmp eq i32 %6, %7
  br i1 %cmp.not.i, label %if.end.i, label %return

if.end.i:                                         ; preds = %land.lhs.true
  switch i32 %6, label %land.lhs.true5 [
    i32 2, label %_ZNK8facebook6hermes7tracing10SynthTrace10TraceValueeqERKS3_.exit
    i32 3, label %sw.bb8.i
    i32 4, label %sw.bb12.i
    i32 5, label %sw.bb12.i
    i32 6, label %sw.bb12.i
  ]

sw.bb8.i:                                         ; preds = %if.end.i
  %val_9.i = getelementptr inbounds i8, ptr %this, i64 32
  %8 = load double, ptr %val_9.i, align 8
  %val_10.i = getelementptr inbounds i8, ptr %2, i64 32
  %9 = load double, ptr %val_10.i, align 8
  %cmp11.i = fcmp oeq double %8, %9
  br i1 %cmp11.i, label %land.lhs.true5, label %return

sw.bb12.i:                                        ; preds = %if.end.i, %if.end.i, %if.end.i
  %val_13.i = getelementptr inbounds i8, ptr %this, i64 32
  %10 = load i64, ptr %val_13.i, align 8
  %val_14.i = getelementptr inbounds i8, ptr %2, i64 32
  %11 = load i64, ptr %val_14.i, align 8
  %cmp15.i = icmp eq i64 %10, %11
  br i1 %cmp15.i, label %land.lhs.true5, label %return

_ZNK8facebook6hermes7tracing10SynthTrace10TraceValueeqERKS3_.exit: ; preds = %if.end.i
  %val_.i = getelementptr inbounds i8, ptr %this, i64 32
  %12 = load i8, ptr %val_.i, align 8
  %val_4.i = getelementptr inbounds i8, ptr %2, i64 32
  %13 = load i8, ptr %val_4.i, align 8
  %14 = xor i8 %13, %12
  %15 = and i8 %14, 1
  %cmp7.i = icmp eq i8 %15, 0
  br i1 %cmp7.i, label %land.lhs.true5, label %return

land.lhs.true5:                                   ; preds = %if.end.i, %sw.bb8.i, %sw.bb12.i, %_ZNK8facebook6hermes7tracing10SynthTrace10TraceValueeqERKS3_.exit
  %value_ = getelementptr inbounds i8, ptr %this, i64 40
  %value_6 = getelementptr inbounds i8, ptr %2, i64 40
  %16 = load i32, ptr %value_, align 8
  %17 = load i32, ptr %value_6, align 8
  %cmp.not.i4 = icmp eq i32 %16, %17
  br i1 %cmp.not.i4, label %if.end.i6, label %return

if.end.i6:                                        ; preds = %land.lhs.true5
  switch i32 %16, label %return [
    i32 2, label %sw.bb.i15
    i32 3, label %sw.bb8.i11
    i32 4, label %sw.bb12.i7
    i32 5, label %sw.bb12.i7
    i32 6, label %sw.bb12.i7
  ]

sw.bb.i15:                                        ; preds = %if.end.i6
  %val_.i16 = getelementptr inbounds i8, ptr %this, i64 48
  %18 = load i8, ptr %val_.i16, align 8
  %val_4.i17 = getelementptr inbounds i8, ptr %2, i64 48
  %19 = load i8, ptr %val_4.i17, align 8
  %20 = xor i8 %19, %18
  %21 = and i8 %20, 1
  %cmp7.i18 = icmp eq i8 %21, 0
  br label %return

sw.bb8.i11:                                       ; preds = %if.end.i6
  %val_9.i12 = getelementptr inbounds i8, ptr %this, i64 48
  %22 = load double, ptr %val_9.i12, align 8
  %val_10.i13 = getelementptr inbounds i8, ptr %2, i64 48
  %23 = load double, ptr %val_10.i13, align 8
  %cmp11.i14 = fcmp oeq double %22, %23
  br label %return

sw.bb12.i7:                                       ; preds = %if.end.i6, %if.end.i6, %if.end.i6
  %val_13.i8 = getelementptr inbounds i8, ptr %this, i64 48
  %24 = load i64, ptr %val_13.i8, align 8
  %val_14.i9 = getelementptr inbounds i8, ptr %2, i64 48
  %25 = load i64, ptr %val_14.i9, align 8
  %cmp15.i10 = icmp eq i64 %24, %25
  br label %return

return:                                           ; preds = %land.lhs.true, %sw.bb12.i7, %sw.bb8.i11, %sw.bb.i15, %if.end.i6, %land.lhs.true5, %sw.bb8.i, %sw.bb12.i, %dynamic_cast.end, %_ZNK8facebook6hermes7tracing10SynthTrace10TraceValueeqERKS3_.exit, %entry
  %retval.0 = phi i1 [ false, %entry ], [ false, %_ZNK8facebook6hermes7tracing10SynthTrace10TraceValueeqERKS3_.exit ], [ false, %dynamic_cast.end ], [ false, %sw.bb12.i ], [ false, %sw.bb8.i ], [ %cmp15.i10, %sw.bb12.i7 ], [ %cmp11.i14, %sw.bb8.i11 ], [ %cmp7.i18, %sw.bb.i15 ], [ false, %land.lhs.true5 ], [ true, %if.end.i6 ], [ false, %land.lhs.true ]
  ret i1 %retval.0
}